; Function Attrs: nounwind uwtable
define void @png_write_flush(ptr noalias noundef %0) local_unnamed_addr #0 {
  %2 = icmp eq ptr %0, null
  br i1 %2, label %10, label %3

3:                                                ; preds = %1
  %4 = getelementptr inbounds i8, ptr %0, i64 532
  %5 = load i32, ptr %4, align 4
  %6 = getelementptr inbounds i8, ptr %0, i64 512
  %7 = load i32, ptr %6, align 8
  %.not = icmp ult i32 %5, %7
  br i1 %.not, label %8, label %10

8:                                                ; preds = %3
  tail call void @png_compress_IDAT(ptr noundef nonnull %0, ptr noundef null, i64 noundef 0, i32 noundef 2) #15
  %9 = getelementptr inbounds i8, ptr %0, i64 668
  store i32 0, ptr %9, align 4
  tail call void @png_flush(ptr noundef nonnull %0) #15
  br label %10

10:                                               ; preds = %3, %1, %8
  ret void
}